target datalayout = "e-m:e-p270:32:32-p271:32:32-p272:64:64-i64:64-i128:128-f80:128-n8:16:32:64-S128"
target triple = "x86_64-pc-linux-gnu"

%struct._packet_info = type { ptr, ptr, i32, i32, %struct.nstime_t, %struct.nstime_t, %struct.nstime_t, i8, ptr, ptr, ptr, ptr, %struct._address, %struct._address, %struct._address, %struct._address, %struct._address, %struct._address, i32, ptr, i8, [3 x i8], %struct.anon, i32, i32, i32, i32, ptr, i8, ptr, ptr, i16, i16, i32, i32, i16, i32, i32, ptr, ptr, ptr, i8, i8, i16, i16, i16, i32, i16, i16, ptr, ptr, ptr, ptr, ptr, i32, i32 }
%struct.nstime_t = type { i64, i32 }
%struct._address = type { i32, i32, ptr, ptr }
%struct.anon = type { i8, [3 x i8] }
%struct.aeron_packet_info_t = type { i32, i32, i32, i32, i32, i32, i32, i64, i32, i32, i16, i8 }
%struct.aeron_msg_t_stct = type { ptr, ptr, ptr, i32, i32, i32, i32, i32, i32, i32, i32, i32, i32, i8 }
%struct.aeron_term_t_stct = type { ptr, ptr, ptr, ptr, ptr, ptr, i32 }

; Function Attrs: null_pointer_is_valid sspstrong uwtable
define internal ptr @aeron_term_msg_find_le(ptr noundef %0, i32 noundef %1) #0 {
  %3 = alloca ptr, align 8
  %4 = alloca i32, align 4
  %5 = alloca ptr, align 8
  store ptr %0, ptr %3, align 8
  store i32 %1, ptr %4, align 4
  call void @llvm.lifetime.start.p0(i64 8, ptr %5) #15
  %6 = load ptr, ptr %3, align 8
  %7 = getelementptr inbounds nuw %struct.aeron_term_t_stct, ptr %6, i32 0, i32 2
  %8 = load ptr, ptr %7, align 8
  %9 = load i32, ptr %4, align 4
  %10 = call ptr @wmem_tree_lookup32_le(ptr noundef %8, i32 noundef %9)
  store ptr %10, ptr %5, align 8
  %11 = load ptr, ptr %5, align 8
  call void @llvm.lifetime.end.p0(i64 8, ptr %5) #15
  ret ptr %11
}

; Function Attrs: null_pointer_is_valid sspstrong uwtable
define internal ptr @aeron_term_msg_add(ptr noundef %0, ptr noundef %1, ptr noundef %2) #0 {
  %4 = alloca ptr, align 8
  %5 = alloca ptr, align 8
  %6 = alloca ptr, align 8
  %7 = alloca ptr, align 8
  %8 = alloca ptr, align 8
  %9 = alloca ptr, align 8
  %10 = alloca i32, align 4
  store ptr %0, ptr %5, align 8
  store ptr %1, ptr %6, align 8
  store ptr %2, ptr %7, align 8
  call void @llvm.lifetime.start.p0(i64 8, ptr %8) #15
  call void @llvm.lifetime.start.p0(i64 8, ptr %9) #15
  %11 = load ptr, ptr %5, align 8
  %12 = load ptr, ptr %7, align 8
  %13 = getelementptr inbounds nuw %struct.aeron_packet_info_t, ptr %12, i32 0, i32 3
  %14 = load i32, ptr %13, align 4
  %15 = call ptr @aeron_term_msg_find_le(ptr noundef %11, i32 noundef %14)
  store ptr %15, ptr %8, align 8
  %16 = load ptr, ptr %8, align 8
  %17 = icmp ne ptr %16, null
  br i1 %17, label %18, label %28

18:                                               ; preds = %3
  %19 = load ptr, ptr %8, align 8
  %20 = getelementptr inbounds nuw %struct.aeron_msg_t_stct, ptr %19, i32 0, i32 3
  %21 = load i32, ptr %20, align 8
  %22 = load ptr, ptr %7, align 8
  %23 = getelementptr inbounds nuw %struct.aeron_packet_info_t, ptr %22, i32 0, i32 3
  %24 = load i32, ptr %23, align 4
  %25 = icmp eq i32 %21, %24
  br i1 %25, label %26, label %28

26:                                               ; preds = %18
  %27 = load ptr, ptr %8, align 8
  store ptr %27, ptr %4, align 8
  store i32 1, ptr %10, align 4
  br label %82

28:                                               ; preds = %18, %3
  %29 = call ptr @wmem_file_scope()
  %30 = call noalias ptr @wmem_alloc0(ptr noundef %29, i64 noundef 72) #16
  store ptr %30, ptr %9, align 8
  %31 = call ptr @wmem_file_scope()
  %32 = call noalias ptr @wmem_list_new(ptr noundef %31)
  %33 = load ptr, ptr %9, align 8
  %34 = getelementptr inbounds nuw %struct.aeron_msg_t_stct, ptr %33, i32 0, i32 0
  store ptr %32, ptr %34, align 8
  %35 = load ptr, ptr %5, align 8
  %36 = load ptr, ptr %9, align 8
  %37 = getelementptr inbounds nuw %struct.aeron_msg_t_stct, ptr %36, i32 0, i32 1
  store ptr %35, ptr %37, align 8
  %38 = load ptr, ptr %9, align 8
  %39 = getelementptr inbounds nuw %struct.aeron_msg_t_stct, ptr %38, i32 0, i32 2
  store ptr null, ptr %39, align 8
  %40 = load ptr, ptr %7, align 8
  %41 = getelementptr inbounds nuw %struct.aeron_packet_info_t, ptr %40, i32 0, i32 3
  %42 = load i32, ptr %41, align 4
  %43 = load ptr, ptr %9, align 8
  %44 = getelementptr inbounds nuw %struct.aeron_msg_t_stct, ptr %43, i32 0, i32 3
  store i32 %42, ptr %44, align 8
  %45 = load ptr, ptr %7, align 8
  %46 = getelementptr inbounds nuw %struct.aeron_packet_info_t, ptr %45, i32 0, i32 3
  %47 = load i32, ptr %46, align 4
  %48 = load ptr, ptr %9, align 8
  %49 = getelementptr inbounds nuw %struct.aeron_msg_t_stct, ptr %48, i32 0, i32 4
  store i32 %47, ptr %49, align 4
  %50 = load ptr, ptr %9, align 8
  %51 = getelementptr inbounds nuw %struct.aeron_msg_t_stct, ptr %50, i32 0, i32 5
  store i32 0, ptr %51, align 8
  %52 = load ptr, ptr %9, align 8
  %53 = getelementptr inbounds nuw %struct.aeron_msg_t_stct, ptr %52, i32 0, i32 6
  store i32 0, ptr %53, align 4
  %54 = load ptr, ptr %9, align 8
  %55 = getelementptr inbounds nuw %struct.aeron_msg_t_stct, ptr %54, i32 0, i32 7
  store i32 0, ptr %55, align 8
  %56 = load ptr, ptr %9, align 8
  %57 = getelementptr inbounds nuw %struct.aeron_msg_t_stct, ptr %56, i32 0, i32 8
  store i32 0, ptr %57, align 4
  %58 = load ptr, ptr %6, align 8
  %59 = getelementptr inbounds nuw %struct._packet_info, ptr %58, i32 0, i32 3
  %60 = load i32, ptr %59, align 4
  %61 = load ptr, ptr %9, align 8
  %62 = getelementptr inbounds nuw %struct.aeron_msg_t_stct, ptr %61, i32 0, i32 9
  store i32 %60, ptr %62, align 8
  %63 = load ptr, ptr %6, align 8
  %64 = getelementptr inbounds nuw %struct._packet_info, ptr %63, i32 0, i32 3
  %65 = load i32, ptr %64, align 4
  %66 = load ptr, ptr %9, align 8
  %67 = getelementptr inbounds nuw %struct.aeron_msg_t_stct, ptr %66, i32 0, i32 10
  store i32 %65, ptr %67, align 4
  %68 = load ptr, ptr %9, align 8
  %69 = getelementptr inbounds nuw %struct.aeron_msg_t_stct, ptr %68, i32 0, i32 11
  store i32 0, ptr %69, align 8
  %70 = load ptr, ptr %9, align 8
  %71 = getelementptr inbounds nuw %struct.aeron_msg_t_stct, ptr %70, i32 0, i32 12
  store i32 0, ptr %71, align 4
  %72 = load ptr, ptr %9, align 8
  %73 = getelementptr inbounds nuw %struct.aeron_msg_t_stct, ptr %72, i32 0, i32 13
  store i8 0, ptr %73, align 8
  %74 = load ptr, ptr %5, align 8
  %75 = getelementptr inbounds nuw %struct.aeron_term_t_stct, ptr %74, i32 0, i32 2
  %76 = load ptr, ptr %75, align 8
  %77 = load ptr, ptr %9, align 8
  %78 = getelementptr inbounds nuw %struct.aeron_msg_t_stct, ptr %77, i32 0, i32 3
  %79 = load i32, ptr %78, align 8
  %80 = load ptr, ptr %9, align 8
  call void @wmem_tree_insert32(ptr noundef %76, i32 noundef %79, ptr noundef %80)
  %81 = load ptr, ptr %9, align 8
  store ptr %81, ptr %4, align 8
  store i32 1, ptr %10, align 4
  br label %82

82:                                               ; preds = %28, %26
  call void @llvm.lifetime.end.p0(i64 8, ptr %9) #15
  call void @llvm.lifetime.end.p0(i64 8, ptr %8) #15
  %83 = load ptr, ptr %4, align 8
  ret ptr %83
}