; Function Attrs: null_pointer_is_valid sspstrong uwtable
define internal fastcc ptr @aeron_term_msg_add(ptr noundef nonnull %0, ptr noundef readonly captures(none) %1, ptr noundef readonly captures(none) %2) unnamed_addr #0 {
  %4 = getelementptr inbounds nuw i8, ptr %2, i64 12
  %5 = load i32, ptr %4, align 4
  %6 = getelementptr i8, ptr %0, i64 16
  %.val = load ptr, ptr %6, align 8
  %7 = tail call ptr @wmem_tree_lookup32_le(ptr noundef %.val, i32 noundef %5)
  %.not = icmp eq ptr %7, null
  br i1 %.not, label %13, label %8

8:                                                ; preds = %3
  %9 = getelementptr inbounds nuw i8, ptr %7, i64 24
  %10 = load i32, ptr %9, align 8
  %11 = load i32, ptr %4, align 4
  %12 = icmp eq i32 %10, %11
  br i1 %12, label %30, label %13

13:                                               ; preds = %8, %3
  %14 = tail call ptr @wmem_file_scope()
  %15 = tail call noalias dereferenceable_or_null(72) ptr @wmem_alloc0(ptr noundef %14, i64 noundef 72) #13
  %16 = tail call ptr @wmem_file_scope()
  %17 = tail call noalias ptr @wmem_list_new(ptr noundef %16)
  store ptr %17, ptr %15, align 8
  %18 = getelementptr inbounds nuw i8, ptr %15, i64 8
  store ptr %0, ptr %18, align 8
  %19 = getelementptr inbounds nuw i8, ptr %15, i64 16
  store ptr null, ptr %19, align 8
  %20 = load i32, ptr %4, align 4
  %21 = getelementptr inbounds nuw i8, ptr %15, i64 24
  store i32 %20, ptr %21, align 8
  %22 = getelementptr inbounds nuw i8, ptr %15, i64 28
  store i32 %20, ptr %22, align 4
  %23 = getelementptr inbounds nuw i8, ptr %15, i64 32
  %24 = getelementptr inbounds nuw i8, ptr %1, i64 20
  tail call void @llvm.memset.p0.i64(ptr noundef nonnull align 8 dereferenceable(16) %23, i8 0, i64 16, i1 false)
  %25 = load i32, ptr %24, align 4
  %26 = getelementptr inbounds nuw i8, ptr %15, i64 48
  store i32 %25, ptr %26, align 8
  %27 = getelementptr inbounds nuw i8, ptr %15, i64 52
  store i32 %25, ptr %27, align 4
  %28 = getelementptr inbounds nuw i8, ptr %15, i64 56
  tail call void @llvm.memset.p0.i64(ptr noundef nonnull align 8 dereferenceable(9) %28, i8 0, i64 9, i1 false)
  %29 = load ptr, ptr %6, align 8
  tail call void @wmem_tree_insert32(ptr noundef %29, i32 noundef %20, ptr noundef %15)
  br label %30

30:                                               ; preds = %8, %13
  %.0 = phi ptr [ %15, %13 ], [ %7, %8 ]
  ret ptr %.0
}